(lp0
(dp1
I1
(lp2
F1e-10
aF0.5
aF1e-10
aF1e-10
aF1e-10
aF1e-10
aF1e-10
aF1e-10
aF1e-10
aF0.5
aF1e-10
aF1e-10
aF1e-10
aF1e-10
asI2
(lp3
F0.0007320441912050563
aF0.0013164688837320332
aF2.9372428617970054e-06
aF1.0911415426392744e-10
aF1.0001096556197482e-10
aF0.024220323415362406
aF0.2354374639274449
aF0.12321489759555437
aF1.0647721147300615e-10
aF0.4392758077724374
aF0.020840279576438952
aF0.1549597234244851
aF5.4761801826886974e-08
aF9.307299793087431e-11
asI3
(lp4
F0.0029744757261235526
aF0.0002297513778208463
aF1.8704326010767067e-05
aF2.3168403566920365e-10
aF1.0002274241916973e-10
aF0.006625688985586267
aF0.21031053915105002
aF0.05238282362398258
aF1.181706064418247e-10
aF0.40411128310311545
aF0.05400763934141379
aF0.2693386029887193
aF4.920457486358458e-07
aF8.055100886787544e-11
asI4
(lp5
F0.006201239059573064
aF0.00019829666000234096
aF5.1217313560600534e-05
aF6.346889616714986e-10
aF1.0005531944730187e-10
aF0.003625893892701722
aF0.1728409827073942
aF0.01862822795645592
aF1.3706323309219325e-10
aF0.33880074851331093
aF0.08816921637052066
aF0.37148273017834943
aF1.4476160097316993e-06
aF6.031343548288551e-11
asI5
(lp6
F0.011643645570512522
aF0.00019013024828587629
aF0.0001274987776583668
aF1.891370484590585e-09
aF1.0018224789234844e-10
aF0.0021374951857741466
aF0.1295112874673832
aF0.004962384077422692
aF1.6179857750593075e-10
aF0.24746304010705278
aF0.13084348177502278
aF0.4731176028054588
aF3.43299826138033e-06
aF3.381549313716156e-11
asI6
(lp7
F0.018823231259567773
aF0.0001832065706929057
aF0.00028675670957609053
aF4.985635629036645e-09
aF1.0062620826911485e-10
aF0.0013418520176454061
aF0.09070783140048654
aF0.0015895996716766003
aF1.834349571837469e-10
aF0.15798197652447957
aF0.16701917235700092
aF0.5620601089091769
aF6.260499363570617e-06
aF1.063602940566546e-11
asI7
(lp8
F0.026152236203921424
aF0.00017452812503040397
aF0.0006134174145660126
aF1.2666126849082662e-08
aF1.0225045456919424e-10
aF0.001020122785979244
aF0.05670921463151889
aF0.0007044024052451933
aF1.923633617587373e-10
aF0.08937003303538625
aF0.18586504848802934
aF0.6393799452685067
aF1.1039880006166545e-05
aF1.0689124443095484e-12
asI8
(lp9
F0.031142908003173837
aF0.00016161903495605508
aF0.0012778128256373258
aF3.689945274955333e-08
aF1.0981364706246121e-10
aF0.0009050643266822301
aF0.028876878119463115
aF0.00033219768098228587
aF1.9331204345049753e-10
aF0.04549096565397013
aF0.19203805213857197
aF0.6997529859567652
aF2.1480257171375586e-05
aF4.705915446153826e-14
asI9
(lp10
F0.033505555417752
aF0.00014160406567615552
aF0.0025492608964547262
aF1.2932977873586064e-07
aF1.574362048521952e-10
aF0.0008880362823402462
aF0.013205829489049655
aF0.00015527055309231348
aF1.933166012972529e-10
aF0.020797972792938886
aF0.19849110310531612
aF0.7302217572294614
aF4.3481687348202165e-05
aF3.779363282540432e-14
asI10
(lp11
F0.03617366024344712
aF0.00011345857890804147
aF0.004851354458693849
aF5.057464678081728e-07
aF5.257695817624118e-10
aF0.0009099580587366299
aF0.008708559712846396
aF7.714407627585308e-05
aF1.9342935169665554e-10
aF0.008471143337068538
aF0.20614960654025435
aF0.7344582250129105
aF8.638471515236854e-05
aF3.883595074298232e-14
asI11
(lp12
F0.039311263429050544
aF8.417576989677559e-05
aF0.008551437492304439
aF1.988262416707626e-06
aF3.543496984684381e-09
aF0.0009454161769940244
aF0.00758104128242622
aF4.45028609793215e-05
aF1.9571263371707566e-10
aF0.0034219204499163717
aF0.21282939288559125
aF0.7270691124664668
aF0.00015974638470627763
aF4.088332492917841e-14
asI12
(lp13
F0.04408489555944224
aF6.833119510898185e-05
aF0.013451646018465765
aF7.408329375003276e-06
aF2.7742589180287135e-08
aF0.0010088460124312235
aF0.006828908933751014
aF3.3558052116476404e-05
aF2.3542408411726966e-10
aF0.0020083734225263216
aF0.2221483804707778
aF0.7100902405420378
aF0.000269384685900785
aF5.2338768549520174e-14
asI13
(lp14
F0.053160398689538355
aF6.280466761413966e-05
aF0.02017583633464012
aF2.703628368854259e-05
aF2.2363596114133618e-07
aF0.001128909553188876
aF0.005837441296099758
aF2.8939714679516873e-05
aF9.515870265702e-10
aF0.0016431954836233812
aF0.2382134238870731
aF0.6792684486117573
aF0.00045334209031217324
aF2.357993456330639e-13
asI14
(lp15
F0.06827176194885407
aF5.691092893044519e-05
aF0.03202935316068794
aF0.00010582694734291727
aF1.9343683589338088e-06
aF0.001321809618236691
aF0.004640683928838901
aF2.3978235290037006e-05
aF1.4928645184615718e-08
aF0.0013098532451703724
aF0.25993345689822045
aF0.6314592495320831
aF0.0008451674550129089
aF4.326878363030974e-12
asI15
(lp16
F0.09003692129656668
aF4.9554756866689284e-05
aF0.05307384057308615
aF0.00045705135293892037
aF1.889200087938143e-05
aF0.0015960782911494979
aF0.0034505972458240977
aF1.866838758568979e-05
aF3.3065241491095194e-07
aF0.0009649316158917108
aF0.28235748407781697
aF0.5662780015091267
aF0.0016976493250647185
aF1.1478886813517747e-10
asI16
(lp17
F0.11691934519460988
aF4.131983319019965e-05
aF0.08644953180731982
aF0.0020010959193042382
aF0.00019560313497533083
aF0.0019508603672268204
aF0.0024318011337566233
aF1.3676415197741147e-05
aF8.22170061759992e-06
aF0.0006586761585507158
aF0.2983201305224438
aF0.48761313139734885
aF0.003396604180249922
aF3.4352074835842767e-09
asI17
(lp18
F0.14377099127152024
aF3.309252591668854e-05
aF0.13098098318108947
aF0.00764294546302826
aF0.0018124116524513942
aF0.0023644528137825587
aF0.0016605078441387059
aF9.526856142136914e-06
aF0.00019254935555093378
aF0.0004239537831087815
aF0.300896044414877
aF0.40393710965412427
aF0.006275337196164978
aF9.518809464997915e-08
asI18
(lp19
F0.16149134636573753
aF2.6075690936800938e-05
aF0.1743194077000096
aF0.02114837147657075
aF0.011826577022910742
aF0.0027680711709915646
aF0.00114511830263294
aF6.564532357406183e-06
aF0.0033328962618370257
aF0.00027180093465584913
aF0.2867855782534311
aF0.3270247887327586
aF0.009851545147180467
aF1.8596079851930143e-06
asI19
(lp20
F0.1596744251244809
aF2.14826601711042e-05
aF0.19023015509698735
aF0.03572433527284149
aF0.04159500136290069
aF0.0030193459559307617
aF0.0008531995191933727
aF4.860132284805508e-06
aF0.031851528796728486
aF0.00019314937184370512
aF0.25766716817123464
aF0.26729550983438577
aF0.011851120190062065
aF1.8719710989650867e-05
asI20
(lp21
F0.13602089903162873
aF1.8742645357552924e-05
aF0.16678405266299126
aF0.037722693132546684
aF0.07817328547421432
aF0.003058318506677936
aF0.0006740893200203333
aF3.860114424253487e-06
aF0.1367373284546732
aF0.00015308151565887046
aF0.2136978180059739
aF0.2161698772947514
aF0.010704546405445835
aF8.140863566465595e-05
asI21
(lp22
F0.09792928620925528
aF1.5273482303652214e-05
aF0.1228569037018934
aF0.03391451650686998
aF0.11161343330958667
aF0.0030572230401123075
aF0.0004597431758453465
aF2.6838393137248855e-06
aF0.3212850696244738
aF0.0001077506696100515
aF0.15073850640807834
aF0.14974339215065677
aF0.008085000201885115
aF0.0001912188802325644
asI22
(lp23
F0.05671229074535335
aF1.0038576758822543e-05
aF0.07556781924102308
aF0.029896688757493108
aF0.1372801982177297
aF0.0031646619525947015
aF0.00022600554551560642
aF1.3478603789876032e-06
aF0.5315288017945434
aF5.444554206782316e-05
aF0.08242498606465903
aF0.07751182212773522
aF0.005293425109394854
aF0.00032746966507045047
asI23
(lp24
F0.027337169968383538
aF4.693760016695607e-06
aF0.040786962146911084
aF0.022473929201944458
aF0.14743095184264468
aF0.00348008839080936
aF7.862147091612931e-05
aF4.667424744708789e-07
aF0.6891726585059127
aF1.8509162663662598e-05
aF0.035560914152047464
aF0.02998467732928562
aF0.0032034450779094936
aF0.0004669134484725392
asI24
(lp25
F0.013504087433453585
aF1.6743818655798137e-06
aF0.02316257795535842
aF0.01746683793484495
aF0.14141521452893072
aF0.003968780996397592
aF2.5729230283663277e-05
aF1.4651845951974496e-07
aF0.7712259642175339
aF5.498723449025454e-06
aF0.015295865544981201
aF0.011239223203936454
aF0.0020925226933770223
aF0.0005958778374993922
asI25
(lp26
F0.00757395483880293
aF5.815946406807022e-07
aF0.014689875962667555
aF0.014177540290194333
aF0.13158100862526068
aF0.004473611547574602
aF1.0007794542345978e-05
aF5.337273994832412e-08
aF0.8127576619602516
aF1.8516175127631278e-06
aF0.007589695358018965
aF0.004935332149785482
aF0.001500981471718982
aF0.0007078446167204526
asI26
(lp27
F0.0049399162393844636
aF2.575981248660255e-07
aF0.010494210015099852
aF0.012108401878253194
aF0.12342153651616955
aF0.004893546613845386
aF4.973443767524889e-06
aF2.5156583025878932e-08
aF0.8349618404134553
aF8.174147700481926e-07
aF0.004520137917426105
aF0.002684301324459632
aF0.0011745937873154895
aF0.0007954428816337133
asI27
(lp28
F0.004038785129251723
aF1.7951280753104494e-07
aF0.008953293768661698
aF0.011230386627524905
aF0.11952214771748479
aF0.0051043302686172
aF3.5800344269167325e-06
aF1.7749662235361976e-08
aF0.8437052645918507
aF5.608376249004752e-07
aF0.0035416175242405984
aF0.002015667255343499
aF0.0010457761330547812
aF0.0008383940499147197
asI28
(lp29
F0.003916993244332074
aF1.7034582355115346e-07
aF0.008739565937689191
aF0.01110207488575466
aF0.11893000213409313
aF0.005137107771647949
aF3.4056879975791086e-06
aF1.6843255091128426e-08
aF0.8449551182179628
aF5.301328380666891e-07
aF0.0034127267849540957
aF0.001929829848097919
aF0.0010274315942309098
aF0.0008450277720110839
asI29
(lp30
F0.003914767568230239
aF1.7018122996303256e-07
aF0.008735649575122899
aF0.011099702646350566
aF0.11891899889223667
aF0.005137718816907747
aF3.4025309063634937e-06
aF1.6826888992533908e-08
aF0.8449781496665896
aF5.295800051174305e-07
aF0.0034103782923308834
aF0.0019282706072719874
aF0.001027094694863311
aF0.0008451513220294279
asI30
(lp31
F0.003914741120509947
aF1.7017944874547358e-07
aF0.008735600573448262
aF0.011099677294135487
aF0.11891888215689553
aF0.005137725388128432
aF3.4024959783995366e-06
aF1.6826709664483406e-08
aF0.8449784084449051
aF5.295739943842731e-07
aF0.0034103512993016267
aF0.0019282530851440762
aF0.0010270900980862818
aF0.0008451526618761882
asI31
(lp32
F0.003914741093128331
aF1.7017944682998478e-07
aF0.008735600523725674
aF0.011099677266763386
aF0.11891888203060957
aF0.0051377253952016935
aF3.4024959411801356e-06
aF1.6826709472628095e-08
aF0.8449784087185322
aF5.2957398793304e-07
aF0.0034103512709812833
aF0.0019282530665915244
aF0.001027090093570414
aF0.0008451526633134199
asI32
(lp33
F0.003914741096388367
aF1.7017944698861242e-07
aF0.00873560053063175
aF0.011099677268993403
aF0.11891888204132535
aF0.0051377253946395035
aF3.4024959445794516e-06
aF1.6826709489434873e-08
aF0.8449784087013857
aF5.295739884788138e-07
aF0.003410351273987812
aF0.0019282530683986437
aF0.0010270900943458068
aF0.0008451526632037899
asI33
(lp34
F0.003914741098223463
aF1.701794472773997e-07
aF0.008735600531690552
aF0.01109967727346695
aF0.11891888206246558
aF0.0051377253935116374
aF3.402495949456485e-06
aF1.682670951622936e-08
aF0.844978408665267
aF5.295739894247128e-07
aF0.0034103512767285106
aF0.0019282530705691694
aF0.001027090094100515
aF0.0008451526629821302
asI34
(lp35
F0.003914741101683115
aF1.7017944728382336e-07
aF0.00873560054131156
aF0.011099677273582699
aF0.11891888206534261
aF0.005137725393578779
aF3.402495950660158e-06
aF1.6826709520002978e-08
aF0.8449784086966785
aF5.295739894856044e-07
aF0.0034103512790692953
aF0.0019282530715517482
aF0.001027090095475682
aF0.0008451526630245931
asI35
(lp36
F0.003914741101078948
aF1.7017944722382148e-07
aF0.008735600540463264
aF0.011099677273589003
aF0.11891888207087538
aF0.00513772539381085
aF3.4024959495764077e-06
aF1.6826709514232983e-08
aF0.8449784087744162
aF5.29573989286521e-07
aF0.003410351278351901
aF0.0019282530710404279
aF0.0010270900954359188
aF0.0008451526631405225
asI36
(lp37
F0.003914741101451726
aF1.7017944729331426e-07
aF0.008735600540489896
aF0.011099677274754095
aF0.11891888207804271
aF0.005137725393588451
aF3.402495950740467e-06
aF1.6826709520673706e-08
aF0.8449784087885777
aF5.295739895139279e-07
aF0.003410351278974491
aF0.0019282530715513716
aF0.001027090095339488
aF0.0008451526631181023
asI37
(lp38
F0.003914741100729671
aF1.7017944729786674e-07
aF0.008735600538410562
aF0.011099677275906536
aF0.11891888208908394
aF0.00513772539353275
aF3.4024959505724244e-06
aF1.6826709520378283e-08
aF0.8449784088578519
aF5.295739895198792e-07
aF0.0034103512785137896
aF0.0019282530713777704
aF0.0010270900950356961
aF0.0008451526631782279
asI38
(lp39
F0.003914741102174758
aF1.7017944731732486e-07
aF0.008735600542133895
aF0.011099677276891755
aF0.11891888210062151
aF0.005137725393576104
aF3.4024959513449527e-06
aF1.682670952350566e-08
aF0.8449784089469375
aF5.295739895999903e-07
aF0.0034103512795944074
aF0.0019282530718973969
aF0.0010270900955369696
aF0.0008451526632744637
asI39
(lp40
F0.003914741103724592
aF1.7017944732255606e-07
aF0.008735600546397366
aF0.01109967727871903
aF0.1189188821211101
aF0.00513772539361564
aF3.4024959519238337e-06
aF1.6826709525422024e-08
aF0.8449784090990179
aF5.295739896350257e-07
aF0.0034103512806587504
aF0.001928253072353967
aF0.0010270900961413586
aF0.000845152663433079
asI40
(lp41
F0.003914741029401651
aF1.7017944704058623e-07
aF0.008735600340976559
aF0.011099677283268678
aF0.11891888217628423
aF0.005137725393893414
aF3.402495924204147e-06
aF1.6826709433109055e-08
aF0.8449784095367533
aF5.295739878790612e-07
aF0.003410351229814627
aF0.001928253050578206
aF0.001027090066877538
aF0.0008451526639165881
asI41
(lp42
F0.003914741077121128
aF1.7017944721436118e-07
aF0.00873560047297096
aF0.011099677282961908
aF0.11891888216955744
aF0.0051377253937442725
aF3.4024959418938786e-06
aF1.682670949174807e-08
aF0.8449784094644347
aF5.295739889832338e-07
aF0.0034103512624212746
aF0.0019282530645175064
aF0.0010270900856913037
aF0.0008451526638197297
asI42
(lp43
F0.003914741077806124
aF1.7017944722580608e-07
aF0.008735600474679228
aF0.011099677283907594
aF0.1189188821807948
aF0.005137725393792344
aF3.4024959423020726e-06
aF1.682670949346448e-08
aF0.8449784095521801
aF5.295739890287451e-07
aF0.0034103512629516295
aF0.001928253064782015
aF0.0010270900859144071
aF0.0008451526639154008
asI43
(lp44
F0.003914741071405641
aF1.701794472079799e-07
aF0.008735600456842145
aF0.011099677287555695
aF0.11891888222168548
aF0.005137725393870442
aF3.4024959400306123e-06
aF1.6826709486165743e-08
aF0.8449784098555719
aF5.295739888991302e-07
aF0.0034103512586211686
aF0.0019282530629558317
aF0.0010270900833570275
aF0.0008451526642317012
asI44
(lp45
F0.003914741110177606
aF1.7017944739057304e-07
aF0.008735600563452812
aF0.011099677288446623
aF0.1189188822260836
aF0.005137725393651422
aF3.4024959550354914e-06
aF1.682670953748473e-08
aF0.844978409850711
aF5.295739899296118e-07
aF0.0034103512853437164
aF0.0019282530745309253
aF0.0010270900984886459
aF0.0008451526641908134
asI45
(lp46
F0.0039147410359425365
aF1.7017944707357986e-07
aF0.008735600358789822
aF0.011099677291253647
aF0.11891888226552529
aF0.005137725394052717
aF3.4024959268184836e-06
aF1.6826709442186614e-08
aF0.8449784101970614
aF5.295739880623001e-07
aF0.0034103512343704218
aF0.0019282530525736126
aF0.0010270900693839986
aF0.0008451526646032381
asI46
(lp47
F0.003914741107152867
aF1.70179447073137e-07
aF0.008735600559464658
aF0.011099677284514185
aF0.11891888221265227
aF0.0051377253948578895
aF3.4024959493503384e-06
aF1.682670950708873e-08
aF0.844978409954529
aF5.295739888780593e-07
aF0.003410351281658136
aF0.0019282530718688169
aF0.0010270900983525369
aF0.0008451526644931159
asI47
(lp48
F0.003914741109279954
aF1.7017944734148293e-07
aF0.008735600561674998
aF0.011099677290414375
aF0.11891888224977441
aF0.005137725393759647
aF3.4024959540022383e-06
aF1.6826709532310073e-08
aF0.8449784100369628
aF5.295739897612112e-07
aF0.003410351284475364
aF0.0019282530739920286
aF0.001027090098306572
aF0.0008451526643949062
asI48
(lp49
F0.003914741111919686
aF1.701794473664135e-07
aF0.00873560056867711
aF0.01109967729073286
aF0.11891888225431066
aF0.005137725393809248
aF3.402495955237783e-06
aF1.6826709537018888e-08
aF0.8449784100773241
aF5.295739898727205e-07
aF0.0034103512863806833
aF0.0019282530748691879
aF0.001027090099272323
aF0.0008451526644434355
asI49
(lp50
F0.003914741113596845
aF1.7017944737852792e-07
aF0.008735600573167402
aF0.011099677293087973
aF0.11891888228101605
aF0.005137725393872218
aF3.40249595597151e-06
aF1.6826709539705405e-08
aF0.8449784102774541
aF5.295739899318342e-07
aF0.0034103512875745617
aF0.0019282530754073694
aF0.0010270900998955322
aF0.0008451526646539653
asI50
(lp51
F0.003914741113021359
aF1.7017944737383615e-07
aF0.008735600571620653
aF0.011099677292406414
aF0.11891888227371908
aF0.005137725393872516
aF3.402495955716653e-06
aF1.6826709538759196e-08
aF0.8449784102256521
aF5.295739899100673e-07
aF0.0034103512871655702
aF0.0019282530752224964
aF0.0010270900996797864
aF0.0008451526646022016
asI51
(lp52
F0.003914741115038944
aF1.7017944738515185e-07
aF0.008735600577079986
aF0.011099677295577356
aF0.11891888230936214
aF0.005137725393944923
aF3.4024959565468353e-06
aF1.6826709541689374e-08
aF0.8449784104908159
aF5.295739899705577e-07
aF0.0034103512885817356
aF0.0019282530758486555
aF0.001027090100443764
aF0.000845152664879331
asI52
(lp53
F0.003914741112761646
aF1.7017944737254294e-07
aF0.008735600570856455
aF0.011099677294631233
aF0.11891888229931906
aF0.005137725393948523
aF3.4024959556333704e-06
aF1.6826709538492493e-08
aF0.8449784104200585
aF5.295739899038035e-07
aF0.003410351286999291
aF0.001928253075155422
aF0.0010270900995646272
aF0.0008451526648091513
asI53
(lp54
F0.003914741115428764
aF1.7017944740014883e-07
aF0.00873560057796451
aF0.011099677296444111
aF0.1189188823173653
aF0.005137725393890318
aF3.4024959568934717e-06
aF1.6826709543350125e-08
aF0.8449784105386804
aF5.295739900230659e-07
aF0.0034103512889197595
aF0.0019282530760412768
aF0.0010270901005507156
aF0.0008451526649182228
asI54
(lp55
F0.003914741116428981
aF1.7017944739283637e-07
aF0.008735600580880533
aF0.011099677297000466
aF0.11891888232451875
aF0.005137725393940438
aF3.402495957103652e-06
aF1.6826709543637064e-08
aF0.8449784105977883
aF5.295739900112388e-07
aF0.0034103512895471656
aF0.0019282530762713868
aF0.001027090100980861
aF0.0008451526649855874
asI55
(lp56
F0.003914741115772539
aF1.7017944737940224e-07
aF0.008735600579239994
aF0.011099677296124672
aF0.1189188823156024
aF0.005137725393960253
aF3.4024959566895917e-06
aF1.682670954184052e-08
aF0.8449784105377021
aF5.29573989960379e-07
aF0.0034103512890358146
aF0.001928253076011828
aF0.0010270901007649142
aF0.0008451526649287486
asI56
(lp57
F0.003914741117233682
aF1.7017944739843057e-07
aF0.008735600582995858
aF0.01109967729897291
aF0.11891888234779159
aF0.005137725394032921
aF3.4024959574675517e-06
aF1.6826709544975832e-08
aF0.8449784107783649
aF5.295739900396163e-07
aF0.0034103512901296614
aF0.0019282530765373262
aF0.0010270901012690162
aF0.000845152665181415
asI57
(lp58
F0.003914741118986795
aF1.7017944741564194e-07
aF0.008735600587648159
aF0.011099677301771515
aF0.11891888237807564
aF0.005137725394046614
aF3.402495958293791e-06
aF1.682670954814153e-08
aF0.844978410995781
aF5.295739901155774e-07
aF0.0034103512913955746
aF0.0019282530771212493
aF0.0010270901019112672
aF0.0008451526654011281
asI58
(lp59
F0.003914741119268578
aF1.7017944742668984e-07
aF0.008735600588272194
aF0.0110996773027653
aF0.11891888238818364
aF0.005137725394024333
aF3.4024959585518784e-06
aF1.682670954938022e-08
aF0.8449784110639128
aF5.295739901544068e-07
aF0.003410351291644185
aF0.0019282530772643238
aF0.0010270901019844587
aF0.0008451526654656091
asI59
(lp60
F0.003914740757786291
aF1.7017944821781655e-07
aF0.008735599538301438
aF0.011099677192194419
aF0.11891888196385256
aF0.005137725426529257
aF3.4024958709270865e-06
aF1.682670933933551e-08
aF0.8449784133946344
aF5.295739891012759e-07
aF0.0034103510604597403
aF0.0019282529894463695
aF0.0010270899457113928
aF0.0008451526731438776
asI60
(lp61
F0.003914741134689848
aF1.7017944747069606e-07
aF0.008735600631046916
aF0.011099677303445524
aF0.11891888239736785
aF0.005137725394104519
aF3.4024959641072494e-06
aF1.682670956736195e-08
aF0.8449784111424026
aF5.295739904732365e-07
aF0.0034103513021314
aF0.0019282530817101786
aF0.0010270901080912211
aF0.000845152665557305
asI61
(lp62
F0.003914741148741328
aF1.7017944753272323e-07
aF0.00873560066968017
aF0.011099677303949717
aF0.11891888240344758
aF0.005137725394133948
aF3.402495969506053e-06
aF1.682670958570257e-08
aF0.8449784111904398
aF5.295739908344783e-07
aF0.0034103513118102975
aF0.0019282530858945256
aF0.0010270901135720715
aF0.0008451526656101914
asI62
(lp63
F0.0039147411388560935
aF1.7017944731238208e-07
aF0.008735600645074537
aF0.011099677302327592
aF0.11891888240037259
aF0.005137725394733682
aF3.4024959630589415e-06
aF1.6826709557336584e-08
aF0.8449784112678791
aF5.29573990013491e-07
aF0.0034103513040553554
aF0.0019282530819149611
aF0.001027090110338692
aF0.0008451526657863039
asI63
(lp64
F0.003914741123439169
aF1.7017944744597342e-07
aF0.008735600599597076
aF0.011099677307287222
aF0.11891888244111704
aF0.005137725394217435
aF3.402495960213541e-06
aF1.6826709555110393e-08
aF0.8449784114718094
aF5.295739902666101e-07
aF0.0034103512945547095
aF0.0019282530785388466
aF0.0010270901035726585
aF0.0008451526659053548
asI64
(lp65
F0.003914741122517966
aF1.7017944742686282e-07
aF0.008735600597374493
aF0.01109967730633078
aF0.11891888242900155
aF0.0051377253941359315
aF3.4024959596014695e-06
aF1.6826709552443116e-08
aF0.844978411372339
aF5.295739901931262e-07
aF0.0034103512938162875
aF0.0019282530781569453
aF0.0010270901032913835
aF0.0008451526657924567
asI65
(lp66
F0.003914741124650893
aF1.701794474301666e-07
aF0.008735600603344126
aF0.011099677307889457
aF0.11891888244576274
aF0.0051377253941379784
aF3.4024959603235024e-06
aF1.682670955466564e-08
aF0.8449784114917888
aF5.295739902280788e-07
aF0.003410351295248577
aF0.0019282530787527949
aF0.0010270901041493654
aF0.0008451526659122677
asI66
(lp67
F0.0039147411237906915
aF1.7017944745192033e-07
aF0.008735600600438107
aF0.011099677309548549
aF0.11891888246706955
aF0.005137725394292102
aF3.4024959604364695e-06
aF1.6826709556053882e-08
aF0.8449784116684914
aF5.29573990290785e-07
aF0.0034103512948361185
aF0.001928253078682364
aF0.0010270901036773957
aF0.00084515266611436
asI67
(lp68
F0.003914741124468318
aF1.7017944745596272e-07
aF0.008735600602328364
aF0.011099677311234395
aF0.1189188824836476
aF0.005137725394228086
aF3.4024959606973845e-06
aF1.6826709556961167e-08
aF0.8449784117757563
aF5.295739903108596e-07
aF0.003410351295297616
aF0.0019282530788812743
aF0.001027090103949685
aF0.0008451526662111164
asI68
(lp69
F0.0039147411279345755
aF1.7017944747776738e-07
aF0.008735600611650388
aF0.011099677315845938
aF0.11891888253651259
aF0.005137725394377313
aF3.402495962167255e-06
aF1.6826709562239294e-08
aF0.8449784121759365
aF5.295739904227528e-07
aF0.003410351297749118
aF0.00192825307997574
aF0.0010270901052476173
aF0.000845152666635927
asI69
(lp70
F0.003914741129452492
aF1.701794474845745e-07
aF0.008735600615841596
aF0.011099677318310219
aF0.11891888256232186
aF0.005137725394351909
aF3.402495962745124e-06
aF1.68267095641983e-08
aF0.8449784123551407
aF5.295739904617904e-07
aF0.0034103512987902853
aF0.0019282530804242551
aF0.001027090105844642
aF0.0008451526668109892
asI70
(lp71
F0.00391474113490837
aF1.701794474960244e-07
aF0.008735600631013264
aF0.011099677320369887
aF0.11891888258613591
aF0.005137725394426027
aF3.4024959646565083e-06
aF1.6826709570234653e-08
aF0.8449784125365741
aF5.295739905617396e-07
aF0.0034103513024840203
aF0.0019282530819775857
aF0.0010270901080137338
aF0.0008451526670046523
asI71
(lp72
F0.00391474119248561
aF1.7017944773763685e-07
aF0.008735600789589218
aF0.011099677319067072
aF0.1189188825729975
aF0.005137725394461366
aF3.4024959865583435e-06
aF1.6826709644142774e-08
aF0.8449784124490407
aF5.2957399200018e-07
aF0.0034103513420540347
aF0.001928253099030682
aF0.0010270901305409552
aF0.0008451526669229034
asI72
(lp73
F0.003914741133735046
aF1.7017944748549455e-07
aF0.008735600627882912
aF0.011099677321318389
aF0.11891888259609765
aF0.005137725394416665
aF3.4024959641191617e-06
aF1.6826709568206164e-08
aF0.8449784126058401
aF5.295739905141124e-07
aF0.0034103513016426434
aF0.0019282530815930574
aF0.001027090107579783
aF0.0008451526670723924
asI73
(lp74
F0.003914741134465672
aF1.7017944750893436e-07
aF0.00873560062950062
aF0.011099677324941465
aF0.11891888263653239
aF0.00513772539448789
aF3.4024959647375355e-06
aF1.6826709571086324e-08
aF0.8449784129048296
aF5.295739905993782e-07
aF0.003410351302278909
aF0.001928253081949715
aF0.0010270901077669636
aF0.0008451526673831603
asI74
(lp75
F0.003914741135663637
aF1.7017944750749202e-07
aF0.008735600632885615
aF0.011099677326249247
aF0.11891888265137944
aF0.005137725394523715
aF3.402495965099304e-06
aF1.6826709572071864e-08
aF0.8449784130162239
aF5.295739906086981e-07
aF0.003410351303069775
aF0.0019282530822684195
aF0.0010270901082561018
aF0.0008451526675004708
asI75
(lp76
F0.003914741136710211
aF1.7017944751137662e-07
aF0.008735600635779725
aF0.01109967732823326
aF0.11891888267255453
aF0.005137725394519752
aF3.402495965488268e-06
aF1.6826709573363874e-08
aF0.8449784131660447
aF5.295739906331452e-07
aF0.003410351303785213
aF0.0019282530825745006
aF0.0010270901086685466
aF0.0008451526676496705
asI76
(lp77
F0.003914741139401066
aF1.7017944751798708e-07
aF0.008735600643180593
aF0.011099677330861802
aF0.11891888270379472
aF0.00513772539465161
aF3.402495966469672e-06
aF1.6826709576535767e-08
aF0.8449784134097376
aF5.295739906866771e-07
aF0.0034103513056295155
aF0.0019282530833606864
aF0.0010270901097163092
aF0.0008451526679151041
asI77
(lp78
F0.003914741139199401
aF1.7017944752840955e-07
aF0.008735600642413376
aF0.011099677331965317
aF0.11891888271627747
aF0.0051377253946813094
aF3.402495966578964e-06
aF1.6826709577340716e-08
aF0.8449784135032876
aF5.295739907185947e-07
aF0.0034103513055634693
aF0.0019282530833771702
aF0.001027090109584595
aF0.000845152668013559
asI78
(lp79
F0.0039147411401504574
aF1.701794475349235e-07
aF0.008735600645065596
aF0.011099677331795862
aF0.11891888271192123
aF0.005137725394571759
aF3.4024959669536575e-06
aF1.6826709578668953e-08
aF0.8449784134543101
aF5.295739907492718e-07
aF0.0034103513062127455
aF0.0019282530836588296
aF0.0010270901099669483
aF0.0008451526679465503
asI79
(lp80
F0.003914741138251829
aF1.7017944752433786e-07
aF0.008735600639846778
aF0.011099677331390462
aF0.11891888270870722
aF0.005137725394620354
aF3.4024959662021487e-06
aF1.6826709576048048e-08
aF0.8449784134394718
aF5.295739906939098e-07
aF0.003410351304901037
aF0.001928253083087077
aF0.0010270901092256732
aF0.0008451526679397027
asI80
(lp81
F0.003914741140646194
aF1.701794475448961e-07
aF0.008735600646267397
aF0.011099677332557536
aF0.11891888272107408
aF0.005137725394615002
aF3.4024959672779334e-06
aF1.6826709580075084e-08
aF0.8449784135264489
aF5.295739907877962e-07
aF0.003410351306608142
aF0.0019282530838622622
aF0.0010270901101197421
aF0.0008451526680258176
asI81
(lp82
F0.0039147411385668
aF1.7017944745358253e-07
aF0.008735600641713297
aF0.011099677330985639
aF0.11891888271213306
aF0.00513772539494706
aF3.402495965259478e-06
aF1.68267095702271e-08
aF0.8449784135177708
aF5.295739904714145e-07
aF0.0034103513047446378
aF0.0019282530827685758
aF0.001027090109588915
aF0.0008451526680717609
asI82
(lp83
F0.003914741139460824
aF1.7017944752111747e-07
aF0.008735600643318298
aF0.011099677331703741
aF0.11891888271205495
aF0.005137725394619593
aF3.402495966530186e-06
aF1.6826709576839935e-08
aF0.844978413463144
aF5.295739906971532e-07
aF0.0034103513056821387
aF0.0019282530833920621
aF0.0010270901097336857
aF0.0008451526679632548
asI83
(lp84
F0.003914741139240121
aF1.7017944752971986e-07
aF0.00873560064251556
aF0.011099677331928915
aF0.11891888271557192
aF0.005137725394667698
aF3.4024959666091645e-06
aF1.682670957748191e-08
aF0.8449784134960346
aF5.29573990723155e-07
aF0.003410351305595855
aF0.0019282530833944994
aF0.001027090109598335
aF0.0008451526680040655
asI84
(lp85
F0.003914741141328792
aF1.7017944754399318e-07
aF0.008735600648165271
aF0.011099677334783233
aF0.11891888274648994
aF0.005137725394682354
aF3.4024959674943347e-06
aF1.6826709580681815e-08
aF0.8449784137181311
aF5.295739907933894e-07
aF0.003410351307066567
aF0.0019282530840502128
aF0.0010270901103899175
aF0.0008451526682286185
asI85
(lp86
F0.003914741143127741
aF1.701794475532484e-07
aF0.00873560065304514
aF0.011099677337087593
aF0.11891888277274812
aF0.005137725394749856
aF3.4024959682220453e-06
aF1.6826709583221454e-08
aF0.8449784139158195
aF5.295739908446483e-07
aF0.0034103513083248035
aF0.0019282530846036268
aF0.0010270901110740443
aF0.0008451526684374517
asa(lp87
S'ar36'
p88
aS'c12'
p89
aS'ca40'
p90
aS'cr48'
p91
aS'fe52'
p92
aS'he4'
p93
aS'mg24'
p94
aS'ne20'
p95
aS'ni56'
p96
aS'o16'
p97
aS's32'
p98
aS'si28'
p99
aS'ti44'
p100
aS'zn60'
p101
aa(lp102
S'0.000000000000000000E+00'
p103
aS'2.000000000000000073E-10'
p104
aS'5.999999999999999960E-10'
p105
aS'1.400000000000000129E-09'
p106
aS'3.000000000000000394E-09'
p107
aS'6.200000000000000924E-09'
p108
aS'1.260000000000000198E-08'
p109
aS'2.540000000000000245E-08'
p110
aS'5.100000000000000669E-08'
p111
aS'1.022000000000000152E-07'
p112
aS'2.046000000000000189E-07'
p113
aS'4.094000000000000528E-07'
p114
aS'8.190000000000001207E-07'
p115
aS'1.638200000000000256E-06'
p116
aS'3.276600000000000528E-06'
p117
aS'6.553400000000000647E-06'
p118
aS'1.310700000000000173E-05'
p119
aS'2.621420000000000390E-05'
p120
aS'5.242860000000000825E-05'
p121
aS'1.048574000000000169E-04'
p122
aS'2.097150000000000208E-04'
p123
aS'4.194302000000000555E-04'
p124
aS'8.388606000000000708E-04'
p125
aS'1.677721400000000210E-03'
p126
aS'3.355443000000000488E-03'
p127
aS'6.710886200000001044E-03'
p128
aS'1.342177260000000129E-02'
p129
aS'2.684354540000000178E-02'
p130
aS'5.368709100000000622E-02'
p131
aS'1.073741822000000151E-01'
p132
aS'2.147483646000000190E-01'
p133
aS'4.294967294000000546E-01'
p134
aS'8.589934590000001258E-01'
p135
aS'1.717986918200000268E+00'
p136
aS'3.435973836600000553E+00'
p137
aS'6.871947673400001122E+00'
p138
aS'1.087194767340000112E+01'
p139
aS'1.487194767340000112E+01'
p140
aS'1.887194767340000112E+01'
p141
aS'2.287194767340000112E+01'
p142
aS'2.687194767340000112E+01'
p143
aS'3.087194767340000112E+01'
p144
aS'3.487194767340000112E+01'
p145
aS'3.887194767340000112E+01'
p146
aS'4.287194767340000112E+01'
p147
aS'4.687194767340000112E+01'
p148
aS'5.087194767340000112E+01'
p149
aS'5.487194767340000112E+01'
p150
aS'5.887194767340000112E+01'
p151
aS'6.287194767340000112E+01'
p152
aS'6.687194767340000112E+01'
p153
aS'7.087194767340000112E+01'
p154
aS'7.487194767340000112E+01'
p155
aS'7.887194767340000112E+01'
p156
aS'8.287194767340000112E+01'
p157
aS'8.687194767340000112E+01'
p158
aS'9.087194767340000112E+01'
p159
aS'9.487194767340000112E+01'
p160
aS'9.887194767340000112E+01'
p161
aS'1.028719476734000011E+02'
p162
aS'1.068719476734000011E+02'
p163
aS'1.108719476734000011E+02'
p164
aS'1.148719476734000011E+02'
p165
aS'1.188719476734000011E+02'
p166
aS'1.228719476734000011E+02'
p167
aS'1.268719476734000011E+02'
p168
aS'1.308719476734000011E+02'
p169
aS'1.348719476734000011E+02'
p170
aS'1.388719476734000011E+02'
p171
aS'1.428719476734000011E+02'
p172
aS'1.468719476734000011E+02'
p173
aS'1.508719476734000011E+02'
p174
aS'1.548719476734000011E+02'
p175
aS'1.588719476734000011E+02'
p176
aS'1.628719476734000011E+02'
p177
aS'1.668719476734000011E+02'
p178
aS'1.708719476734000011E+02'
p179
aS'1.748719476734000011E+02'
p180
aS'1.788719476734000011E+02'
p181
aS'1.828719476734000011E+02'
p182
aS'1.868719476734000011E+02'
p183
aS'1.908719476734000011E+02'
p184
aS'1.948719476734000011E+02'
p185
aS'1.988719476734000011E+02'
p186
aS'2.028719476734000011E+02'
p187
aa.